; Function Attrs: mustprogress uwtable
define hidden noundef range(i32 0, 7) i32 @_ZN2cv3dnn14dnn4_v2024122314estimateLayoutERKN13opencv_tflite6TensorE(ptr noundef nonnull readonly align 1 captures(none) dereferenceable(1) %0) local_unnamed_addr #3 personality ptr @__gxx_personality_v0 {
  %2 = alloca %"class.std::__cxx11::basic_string", align 8
  %3 = alloca %"class.std::allocator", align 1
  %4 = load i32, ptr %0, align 4, !tbaa !3
  %5 = sext i32 %4 to i64
  %6 = sub nsw i64 0, %5
  %7 = getelementptr inbounds i8, ptr %0, i64 %6
  %8 = load i16, ptr %7, align 2, !tbaa !7
  %9 = icmp ugt i16 %8, 4
  br i1 %9, label %_ZNK11flatbuffers5Table22GetOptionalFieldOffsetEt.exit.i.i.i, label %12

_ZNK11flatbuffers5Table22GetOptionalFieldOffsetEt.exit.i.i.i: ; preds = %1
  %10 = getelementptr inbounds nuw i8, ptr %7, i64 4
  %11 = load i16, ptr %10, align 2, !tbaa !7
  %.not.i.i.i = icmp eq i16 %11, 0
  br i1 %.not.i.i.i, label %12, label %22

12:                                               ; preds = %_ZNK11flatbuffers5Table22GetOptionalFieldOffsetEt.exit.i.i.i, %1
  call void @llvm.lifetime.start.p0(i64 32, ptr nonnull %2) #26
  call void @llvm.lifetime.start.p0(i64 1, ptr nonnull %3) #26
  call void @_ZNSt7__cxx1112basic_stringIcSt11char_traitsIcESaIcEEC2EPKcRKS3_(ptr noundef nonnull align 8 dereferenceable(32) %2, ptr noundef nonnull @.str.15, ptr noundef nonnull align 1 dereferenceable(1) %3)
  invoke void @_ZN2cv5errorEiRKNSt7__cxx1112basic_stringIcSt11char_traitsIcESaIcEEEPKcS9_i(i32 noundef -215, ptr noundef nonnull align 8 dereferenceable(32) %2, ptr noundef nonnull @__func__._ZN2cv3dnn14dnn4_v2024122314estimateLayoutERKN13opencv_tflite6TensorE, ptr noundef nonnull @.str.1, i32 noundef 153) #27
          to label %13 unwind label %14

13:                                               ; preds = %12
  unreachable

14:                                               ; preds = %12
  %15 = landingpad { ptr, i32 }
          cleanup
  %16 = load ptr, ptr %2, align 8, !tbaa !9
  %17 = getelementptr inbounds nuw i8, ptr %2, i64 16
  %18 = icmp eq ptr %16, %17
  br i1 %18, label %_ZNKSt7__cxx1112basic_stringIcSt11char_traitsIcESaIcEE11_M_is_localEv.exit.thread.i.i, label %_ZNKSt7__cxx1112basic_stringIcSt11char_traitsIcESaIcEE11_M_is_localEv.exit.i.i

_ZNKSt7__cxx1112basic_stringIcSt11char_traitsIcESaIcEE11_M_is_localEv.exit.thread.i.i: ; preds = %14
  %19 = getelementptr inbounds nuw i8, ptr %2, i64 8
  %20 = load i64, ptr %19, align 8, !tbaa !15
  %21 = icmp ult i64 %20, 16
  call void @llvm.assume(i1 %21)
  br label %_ZNSt7__cxx1112basic_stringIcSt11char_traitsIcESaIcEED2Ev.exit

_ZNKSt7__cxx1112basic_stringIcSt11char_traitsIcESaIcEE11_M_is_localEv.exit.i.i: ; preds = %14
  call void @_ZdlPv(ptr noundef %16) #28
  br label %_ZNSt7__cxx1112basic_stringIcSt11char_traitsIcESaIcEED2Ev.exit

_ZNSt7__cxx1112basic_stringIcSt11char_traitsIcESaIcEED2Ev.exit: ; preds = %_ZNKSt7__cxx1112basic_stringIcSt11char_traitsIcESaIcEE11_M_is_localEv.exit.i.i, %_ZNKSt7__cxx1112basic_stringIcSt11char_traitsIcESaIcEE11_M_is_localEv.exit.thread.i.i
  call void @llvm.lifetime.end.p0(i64 1, ptr nonnull %3) #26
  call void @llvm.lifetime.end.p0(i64 32, ptr nonnull %2) #26
  resume { ptr, i32 } %15

22:                                               ; preds = %_ZNK11flatbuffers5Table22GetOptionalFieldOffsetEt.exit.i.i.i
  %23 = zext i16 %11 to i64
  %24 = getelementptr inbounds nuw i8, ptr %0, i64 %23
  %25 = load i32, ptr %24, align 4, !tbaa !3
  %26 = zext i32 %25 to i64
  %27 = getelementptr inbounds nuw i8, ptr %24, i64 %26
  %28 = load i32, ptr %27, align 4, !tbaa !16
  %switch.tableidx = add i32 %28, -2
  %29 = icmp ult i32 %switch.tableidx, 4
  br i1 %29, label %switch.lookup, label %31

switch.lookup:                                    ; preds = %22
  %30 = zext nneg i32 %switch.tableidx to i64
  %switch.gep = getelementptr inbounds nuw [4 x i32], ptr @switch.table._ZN2cv3dnn14dnn4_v2024122314estimateLayoutERKN13opencv_tflite6TensorE, i64 0, i64 %30
  %switch.load = load i32, ptr %switch.gep, align 4
  br label %31

31:                                               ; preds = %22, %switch.lookup
  %.06 = phi i32 [ %switch.load, %switch.lookup ], [ 0, %22 ]
  ret i32 %.06
}